MPASM 5.86                      ADC_UART.ASM   12-18-2025  10:34:55         PAGE  1


LOC  OBJECT CODE     LINE SOURCE TEXT
  VALUE

                      00001 ;       Programme du tutorial TP FIP2
                      00002 ;       
                      00003 
                      00004 
                      00005         list p=16f877
Warning[205]: Found directive in column 1. (include)
                      00006 include "p16f877.inc"
                      00001         LIST
                      00002 
                      00003 ;==========================================================================
                      00004 ; Build date : Oct 24 2019
                      00005 ;  MPASM PIC16F877 processor include
                      00006 ; 
                      00007 ;  (c) Copyright 1999-2019 Microchip Technology, All rights reserved
                      00008 ;==========================================================================
                      00009 
                      00541         LIST
                      00007         
                      00008 ; CONFIG
                      00009 ; __config 0xFF39
2007   3F3A           00010  __CONFIG _FOSC_HS & _WDTE_OFF & _PWRTE_OFF & _CP_OFF & _BOREN_OFF & _LVP_OFF & _CPD_OFF & _WRT_ON
                      00011 
                      00012  
                      00013  
                      00014     org 0x0 ; reset addr
0000   2???           00015         goto jump_start
                      00016         
                      00017 irq org 0x004
                      00018     ; context save
0004   1283 1303      00019         banksel STATUS
0006   00A0           00020         MOVWF   ctx_w
0007   0803           00021         MOVFW   STATUS
0008   00A1           00022         MOVWF   ctx_status
                      00023         ; set uart_tx flag
0009   180C           00024         btfsc   PIR1, TMR1IF
000A   2???           00025         goto t1_it
000B   1A8C           00026         btfsc   PIR1, RCIF
000C   2???           00027         goto rx_if
000D   2???           00028         goto leave
                      00029         
000E                  00030 t1_it   
000E   1478           00031         BSF     UART_TX_EN, 0
000F   100C           00032         BCF     PIR1, TMR1IF
0010   2???           00033         goto leave
                      00034         
0011                  00035 rx_if   
0011   128C           00036         BCF     PIR1, RCIF
0012   2???           00037         goto leave
                      00038         
                      00039         
0013                  00040 leave   ; restore context
0013   0821           00041         MOVFW   ctx_status
0014   0083           00042         MOVWF   STATUS
MPASM 5.86                      ADC_UART.ASM   12-18-2025  10:34:55         PAGE  2


LOC  OBJECT CODE     LINE SOURCE TEXT
  VALUE

0015   0820           00043         MOVFW   ctx_w
0016   0009           00044         RETFIE
                      00045     
                      00046     
                      00047         org     0x100
                      00048         
0100                  00049 jump_start      
Warning[207]: Found label after column 1. (BCD1)
  00000071            00050         BCD1            equ 0x71
Warning[207]: Found label after column 1. (BCD01)
  00000072            00051         BCD01           equ 0x72
Warning[207]: Found label after column 1. (BCD_TEMP)
  00000074            00052         BCD_TEMP        equ 0x74
                      00053         
Warning[207]: Found label after column 1. (ADC_CON)
  00000075            00054         ADC_CON         equ 0x75
Warning[207]: Found label after column 1. (ADC_TEMP)
  00000076            00055         ADC_TEMP        equ 0x76
                      00056     
Warning[207]: Found label after column 1. (UART_TX_EN)
  00000078            00057         UART_TX_EN      equ 0x78
                      00058     
Warning[207]: Found label after column 1. (ctx_w)
  00000020            00059         ctx_w           equ 0x20
Warning[207]: Found label after column 1. (ctx_status)
  00000021            00060         ctx_status      equ 0x21
                      00061                 ; configuration du port B&D en sortie (8LED)
                      00062 
0100   1683 1303      00063         banksel TRISB           ; port B en sortie
Message[302]: Register in operand not in bank 0.  Ensure that bank bits are correct.
0102   0186           00064         clrf    TRISB           
0103   1283 1303      00065         banksel PORTB           ;Clear PORTC
0105   0186           00066         clrf    PORTB   
                      00067         
0106   1683 1303      00068         banksel TRISD           ; port B en sortie
Message[302]: Register in operand not in bank 0.  Ensure that bank bits are correct.
0108   0188           00069         clrf    TRISD           
0109   1283 1303      00070         banksel PORTD           ;Clear PORTC
010B   0188           00071         clrf    PORTD
                      00072         
                      00073         ; configuration de l'ADC
                      00074         
010C   1683 1303      00075         banksel ADCON1
010E   300E           00076         movlw   B'00001110'     ;Left justify,1 analog channel
Message[302]: Register in operand not in bank 0.  Ensure that bank bits are correct.
010F   009F           00077         movwf   ADCON1          ;VDD and VSS references
                      00078 
0110   1283 1303      00079         banksel ADCON0  
0112   3041           00080         movlw   B'01000001'     ;Fosc/8, A/D enabled
0113   009F           00081         movwf   ADCON0
                      00082         
                      00083         ; USART CONFIG
                      00084         
MPASM 5.86                      ADC_UART.ASM   12-18-2025  10:34:55         PAGE  3


LOC  OBJECT CODE     LINE SOURCE TEXT
  VALUE

                      00085         ;---CONFIGURE TXSTA
                      00086         ;
                      00087         ;7- CSRC        0
                      00088         ;6- TX9         0
                      00089         ;5- TXEN        1
                      00090         ;4- SYNC        0
                      00091         ;3- NOT USED    0
                      00092         ;2- BRGH        1
                      00093         ;1- TRMT        0
                      00094         ;0- TX9D        0
0114   1683 1303      00095         banksel TXSTA
0116   3024           00096         MOVLW   B'00100100' 
Message[302]: Register in operand not in bank 0.  Ensure that bank bits are correct.
0117   0098           00097         MOVWF   TXSTA
                      00098 
                      00099         ;---CONFIGURE RCSTA
                      00100         ;
                      00101         ;7- SPEN        1
                      00102         ;6- RX9         0
                      00103         ;5- SREN        0
                      00104         ;4- CREN        0
                      00105         ;3- ADDEN       0
                      00106         ;2- FERR        0
                      00107         ;1- OERR        0
                      00108         ;1- RX9D        0
0118   1283 1303      00109         banksel RCSTA
011A   3080           00110         MOVLW   B'10000000' ;ENABLE SERIAL PORT
011B   0098           00111         MOVWF   RCSTA ;RECEIVE STATUS REG
                      00112         
                      00113         ;---CONFIGURE SPBRG FOR DESIRED BAUD RATE
011C   1683 1303      00114         banksel SPBRG
011E   3032           00115         MOVLW   D'50' ;WE WILL USE 9600bps 
Message[302]: Register in operand not in bank 0.  Ensure that bank bits are correct.
011F   0099           00116         MOVWF   SPBRG ;BAUD AT 8MHZ
                      00117         
                      00118         ; TIMER1 SETUP
0120   1283 1303      00119         banksel T1CON
0122   303D           00120         MOVLW   B'00111101'
0123   0090           00121         MOVWF   T1CON
                      00122         
                      00123         ;TIMER1 IT SETUP
0124   1283 1303      00124         banksel INTCON
0126   30C0           00125         MOVLW   B'11000000'
0127   008B           00126         MOVWF   INTCON
                      00127         
0128   1683 1303      00128         banksel PIE1
012A   3001           00129         MOVLW   B'00000001'
Message[302]: Register in operand not in bank 0.  Ensure that bank bits are correct.
012B   008C           00130         MOVWF   PIE1
                      00131         
                      00132         
                      00133         
                      00134         ; ---main()
MPASM 5.86                      ADC_UART.ASM   12-18-2025  10:34:55         PAGE  4


LOC  OBJECT CODE     LINE SOURCE TEXT
  VALUE

012C   2???           00135 loop    call    ADC
012D   2???           00136         call    BCD
012E   2???           00137         call    UART_TX_IT
012F   2???           00138         goto    loop
                      00139         
0130                  00140 ADC:        ; wait unitil ADC convertion is done 
0130   01F2           00141         clrf    BCD01
0131   01F1           00142         clrf    BCD1
0132   01F4           00143         clrf    BCD_TEMP
0133   01F6           00144         clrf    ADC_TEMP
0134   1283 1303      00145         banksel ADCON0
0136   151F           00146 start   bsf     ADCON0,GO       ; demarrage de la conversion
0137   191F           00147 non     BTFSC   ADCON0,GO       ; attendre la fin de conversion
0138   2???           00148         goto    non
0139   0E1E           00149 oui     swapf   ADRESH,W        ; quel est le role de cette instruction ???
013A   0086           00150         movwf   PORTB           ; ecriture sur le port B (affichage sur les LEDs
013B   0E06           00151         swapf   PORTB, W
013C   0088           00152         movwf   PORTD
013D   00F5           00153         movwf   ADC_CON
013E   0008           00154         return                  ; boucler sur la procedure de lecture
                      00155         
                      00156     
013F                  00157 DELAY:                  ;PAS Utilisé
013F   30FF           00158         MOVLW   0xFF
0140   008E           00159         MOVWF   TMR1
                      00160         
0141   300F           00161 D1      MOVLW   0x0F
0142   0081           00162         MOVWF   TMR0
                      00163         
Message[305]: Using default destination of 1 (file).
0143   0B81           00164 D0      DECFSZ  TMR0
0144   2???           00165         goto    D0
                      00166         
Message[305]: Using default destination of 1 (file).
0145   0B8E           00167         DECFSZ  TMR1
0146   2???           00168         goto    D1      
                      00169         
0147   0008           00170         return
                      00171         
                      00172         
0148                  00173 UART_TX_IT:
0148   1C78           00174         BTFSS   UART_TX_EN, 0
0149   0008           00175         return
014A   1078           00176         BCF     UART_TX_EN, 0
014B   1283 1303      00177         banksel TXREG
014D   0871           00178         movfw   BCD1
014E   2???           00179         call    UART_TX
014F   302C           00180         movlw   d'44'
0150   2???           00181         call    UART_TX
0151   0872           00182         movfw   BCD01
0152   2???           00183         call    UART_TX
0153   3056           00184         movlw   d'86'
0154   2???           00185         call    UART_TX
MPASM 5.86                      ADC_UART.ASM   12-18-2025  10:34:55         PAGE  5


LOC  OBJECT CODE     LINE SOURCE TEXT
  VALUE

0155   300A           00186         movlw   d'10'
0156   2???           00187         call    UART_TX
0157   0008           00188         return
                      00189         
0158                  00190 UART_TX:        ; wait for transmit standby
0158   0000           00191 wait    nop
0159   1283 1303      00192         banksel PIR1
015B   1E0C           00193         BTFSS   PIR1, TXIF
015C   2???           00194         goto wait
015D   0099           00195         MOVWF   TXREG
                      00196         ;call   DELAY
015E   0008           00197         return
                      00198         
015F   0000           00199 BCD:nop ;unité BCD
0160   0875           00200         MOVFW   ADC_CON
0161   00F6           00201         MOVWF   ADC_TEMP
0162                  00202 ret
0162   3005           00203         movlw   d'5'
Message[305]: Using default destination of 1 (file).
0163   02F6           00204         subwf   ADC_TEMP
0164   1803           00205         btfsc   STATUS, C
0165   2???           00206         goto    dec_pp
0166   0871           00207         movfw   BCD1
0167   3E30           00208         addlw   d'48'
0168   00F1           00209         movwf   BCD1
                      00210         
0169   0872           00211         movfw   BCD01
016A   3E30           00212         addlw   d'48'
016B   00F2           00213         movwf   BCD01
016C   0008           00214         return
                      00215         
                      00216 
Message[305]: Using default destination of 1 (file).
016D   0AF1           00217 unit_pp incf    BCD1
016E   01F2           00218         clrf    BCD01
                      00219         
                      00220     
                      00221 
Message[305]: Using default destination of 1 (file).
016F   0AF2           00222 dec_pp  incf    BCD01
0170   0872           00223         movfw   BCD01
0171   00F4           00224         movwf   BCD_TEMP
0172   300A           00225         movlw   D'10'
Message[305]: Using default destination of 1 (file).
0173   02F4           00226         subwf   BCD_TEMP
0174   1903           00227         btfsc   STATUS, Z
0175   2???           00228         goto    unit_pp
0176   2???           00229         goto    ret
                      00230         
                      00231 
Warning[205]: Found directive in column 1. (end)
3F3A                  00232 end
MPASM 5.86                      ADC_UART.ASM   12-18-2025  10:34:55         PAGE  6


SYMBOL TABLE
  LABEL                             VALUE 

ACKDT                             00000005
ACKEN                             00000004
ACKSTAT                           00000006
ADC                               00000130
ADCON0                            0000001F
ADCON1                            0000009F
ADCS0                             00000006
ADCS1                             00000007
ADC_CON                           00000075
ADC_TEMP                          00000076
ADDEN                             00000003
ADFM                              00000007
ADIE                              00000006
ADIF                              00000006
ADON                              00000000
ADRESH                            0000001E
ADRESL                            0000009E
BCD                               0000015F
BCD01                             00000072
BCD1                              00000071
BCD_TEMP                          00000074
BCLIE                             00000003
BCLIF                             00000003
BF                                00000000
BRGH                              00000002
C                                 00000000
CCP1CON                           00000017
CCP1IE                            00000002
CCP1IF                            00000002
CCP1M0                            00000000
CCP1M1                            00000001
CCP1M2                            00000002
CCP1M3                            00000003
CCP1X                             00000005
CCP1Y                             00000004
CCP2CON                           0000001D
CCP2IE                            00000000
CCP2IF                            00000000
CCP2M0                            00000000
CCP2M1                            00000001
CCP2M2                            00000002
CCP2M3                            00000003
CCP2X                             00000005
CCP2Y                             00000004
CCPR1                             00000015
CCPR1H                            00000016
CCPR1L                            00000015
CCPR2                             0000001B
CCPR2H                            0000001C
CCPR2L                            0000001B
CHS0                              00000003
CHS1                              00000004
CHS2                              00000005
MPASM 5.86                      ADC_UART.ASM   12-18-2025  10:34:55         PAGE  7


SYMBOL TABLE
  LABEL                             VALUE 

CKE                               00000006
CKP                               00000004
CREN                              00000004
CSRC                              00000007
D                                 00000005
D0                                00000143
D1                                00000141
DATA_ADDRESS                      00000005
DC                                00000001
DELAY                             0000013F
D_A                               00000005
D_NOT_A                           00000005
EEADR                             0000010D
EEADRH                            0000010F
EECON1                            0000018C
EECON2                            0000018D
EEDATA                            0000010C
EEDATH                            0000010E
EEIE                              00000004
EEIF                              00000004
EEPGD                             00000007
F                                 00000001
FERR                              00000002
FSR                               00000004
GCEN                              00000007
GIE                               00000007
GO                                00000002
GO_DONE                           00000002
GO_NOT_DONE                       00000002
I2C_DATA                          00000005
I2C_READ                          00000002
I2C_START                         00000003
I2C_STOP                          00000004
IBF                               00000007
IBOV                              00000005
INDF                              00000000
INTCON                            0000000B
INTE                              00000004
INTEDG                            00000006
INTF                              00000001
IRP                               00000007
NOT_A                             00000005
NOT_ADDRESS                       00000005
NOT_BO                            00000000
NOT_BOR                           00000000
NOT_DONE                          00000002
NOT_PD                            00000003
NOT_POR                           00000001
NOT_RBPU                          00000007
NOT_RC8                           00000006
NOT_T1SYNC                        00000002
NOT_TO                            00000004
NOT_TX8                           00000006
MPASM 5.86                      ADC_UART.ASM   12-18-2025  10:34:55         PAGE  8


SYMBOL TABLE
  LABEL                             VALUE 

NOT_W                             00000002
NOT_WRITE                         00000002
OBF                               00000006
OERR                              00000001
OPTION_REG                        00000081
P                                 00000004
PCFG0                             00000000
PCFG1                             00000001
PCFG2                             00000002
PCFG3                             00000003
PCL                               00000002
PCLATH                            0000000A
PCON                              0000008E
PEIE                              00000006
PEN                               00000002
PIE1                              0000008C
PIE2                              0000008D
PIR1                              0000000C
PIR2                              0000000D
PORTA                             00000005
PORTB                             00000006
PORTC                             00000007
PORTD                             00000008
PORTE                             00000009
PR2                               00000092
PS0                               00000000
PS1                               00000001
PS2                               00000002
PSA                               00000003
PSPIE                             00000007
PSPIF                             00000007
PSPMODE                           00000004
R                                 00000002
RA0                               00000000
RA1                               00000001
RA2                               00000002
RA3                               00000003
RA4                               00000004
RA5                               00000005
RB0                               00000000
RB1                               00000001
RB2                               00000002
RB3                               00000003
RB4                               00000004
RB5                               00000005
RB6                               00000006
RB7                               00000007
RBIE                              00000003
RBIF                              00000000
RC0                               00000000
RC1                               00000001
RC2                               00000002
RC3                               00000003
MPASM 5.86                      ADC_UART.ASM   12-18-2025  10:34:55         PAGE  9


SYMBOL TABLE
  LABEL                             VALUE 

RC4                               00000004
RC5                               00000005
RC6                               00000006
RC7                               00000007
RC8_9                             00000006
RC9                               00000006
RCD8                              00000000
RCEN                              00000003
RCIE                              00000005
RCIF                              00000005
RCREG                             0000001A
RCSTA                             00000018
RD                                00000000
RD0                               00000000
RD1                               00000001
RD2                               00000002
RD3                               00000003
RD4                               00000004
RD5                               00000005
RD6                               00000006
RD7                               00000007
RE0                               00000000
RE1                               00000001
RE2                               00000002
READ_WRITE                        00000002
RP0                               00000005
RP1                               00000006
RSEN                              00000001
RX9                               00000006
RX9D                              00000000
R_NOT_W                           00000002
R_W                               00000002
S                                 00000003
SEN                               00000000
SMP                               00000007
SPBRG                             00000099
SPEN                              00000007
SREN                              00000005
SSPADD                            00000093
SSPBUF                            00000013
SSPCON                            00000014
SSPCON2                           00000091
SSPEN                             00000005
SSPIE                             00000003
SSPIF                             00000003
SSPM0                             00000000
SSPM1                             00000001
SSPM2                             00000002
SSPM3                             00000003
SSPOV                             00000006
SSPSTAT                           00000094
STATUS                            00000003
SYNC                              00000004
MPASM 5.86                      ADC_UART.ASM   12-18-2025  10:34:55         PAGE 10


SYMBOL TABLE
  LABEL                             VALUE 

T0CS                              00000005
T0IE                              00000005
T0IF                              00000002
T0SE                              00000004
T1CKPS0                           00000004
T1CKPS1                           00000005
T1CON                             00000010
T1INSYNC                          00000002
T1OSCEN                           00000003
T1SYNC                            00000002
T2CKPS0                           00000000
T2CKPS1                           00000001
T2CON                             00000012
TMR0                              00000001
TMR0IE                            00000005
TMR0IF                            00000002
TMR1                              0000000E
TMR1CS                            00000001
TMR1H                             0000000F
TMR1IE                            00000000
TMR1IF                            00000000
TMR1L                             0000000E
TMR1ON                            00000000
TMR2                              00000011
TMR2IE                            00000001
TMR2IF                            00000001
TMR2ON                            00000002
TOUTPS0                           00000003
TOUTPS1                           00000004
TOUTPS2                           00000005
TOUTPS3                           00000006
TRISA                             00000085
TRISA0                            00000000
TRISA1                            00000001
TRISA2                            00000002
TRISA3                            00000003
TRISA4                            00000004
TRISA5                            00000005
TRISB                             00000086
TRISB0                            00000000
TRISB1                            00000001
TRISB2                            00000002
TRISB3                            00000003
TRISB4                            00000004
TRISB5                            00000005
TRISB6                            00000006
TRISB7                            00000007
TRISC                             00000087
TRISC0                            00000000
TRISC1                            00000001
TRISC2                            00000002
TRISC3                            00000003
TRISC4                            00000004
MPASM 5.86                      ADC_UART.ASM   12-18-2025  10:34:55         PAGE 11


SYMBOL TABLE
  LABEL                             VALUE 

TRISC5                            00000005
TRISC6                            00000006
TRISC7                            00000007
TRISD                             00000088
TRISD0                            00000000
TRISD1                            00000001
TRISD2                            00000002
TRISD3                            00000003
TRISD4                            00000004
TRISD5                            00000005
TRISD6                            00000006
TRISD7                            00000007
TRISE                             00000089
TRISE0                            00000000
TRISE1                            00000001
TRISE2                            00000002
TRMT                              00000001
TX8_9                             00000006
TX9                               00000006
TX9D                              00000000
TXD8                              00000000
TXEN                              00000005
TXIE                              00000004
TXIF                              00000004
TXREG                             00000019
TXSTA                             00000098
UA                                00000001
UART_TX                           00000158
UART_TX_EN                        00000078
UART_TX_IT                        00000148
W                                 00000000
WCOL                              00000007
WR                                00000001
WREN                              00000002
WRERR                             00000003
Z                                 00000002
_BODEN_OFF                        00003FBF
_BODEN_ON                         00003FFF
_BOREN_OFF                        00003FBF
_BOREN_ON                         00003FFF
_CONFIG                           00002007
_CPD_OFF                          00003FFF
_CPD_ON                           00003EFF
_CP_ALL                           00000FCF
_CP_HALF                          00001FDF
_CP_OFF                           00003FFF
_CP_UPPER_256                     00002FEF
_DEBUG_OFF                        00003FFF
_DEBUG_ON                         000037FF
_DEVID1                           00002006
_FOSC_EXTRC                       00003FFF
_FOSC_HS                          00003FFE
_FOSC_LP                          00003FFC
MPASM 5.86                      ADC_UART.ASM   12-18-2025  10:34:55         PAGE 12


SYMBOL TABLE
  LABEL                             VALUE 

_FOSC_XT                          00003FFD
_HS_OSC                           00003FFE
_IDLOC0                           00002000
_IDLOC1                           00002001
_IDLOC2                           00002002
_IDLOC3                           00002003
_LP_OSC                           00003FFC
_LVP_OFF                          00003F7F
_LVP_ON                           00003FFF
_PWRTE_OFF                        00003FFF
_PWRTE_ON                         00003FF7
_RC_OSC                           00003FFF
_WDTE_OFF                         00003FFB
_WDTE_ON                          00003FFF
_WDT_OFF                          00003FFB
_WDT_ON                           00003FFF
_WRT_ENABLE_OFF                   00003DFF
_WRT_ENABLE_ON                    00003FFF
_WRT_OFF                          00003DFF
_WRT_ON                           00003FFF
_XT_OSC                           00003FFD
__16F877                          00000001
ctx_status                        00000021
ctx_w                             00000020
dec_pp                            0000016F
irq                               00000004
jump_start                        00000100
leave                             00000013
loop                              0000012C
non                               00000137
oui                               00000139
ret                               00000162
rx_if                             00000011
start                             00000136
t1_it                             0000000E
unit_pp                           0000016D
wait                              00000158

Errors   :     0
Warnings :    10 reported,     0 suppressed
Messages :    12 reported,     0 suppressed

